; Function Attrs: mustprogress uwtable
define hidden void @_ZN2cv4face18FacemarkKazemiImpl8readLeafERSt14basic_ifstreamIcSt11char_traitsIcEERSt6vectorINS_6Point_IfEESaIS9_EE(ptr noundef nonnull readnone align 8 captures(none) dereferenceable(216) %0, ptr noundef nonnull align 8 dereferenceable(256) %1, ptr noundef nonnull align 8 dereferenceable(24) %2) local_unnamed_addr #5 align 2 {
  %4 = alloca i64, align 8
  call void @llvm.lifetime.start.p0(i64 8, ptr nonnull %4) #24
  %5 = call noundef nonnull align 8 dereferenceable(16) ptr @_ZNSi4readEPcl(ptr noundef nonnull align 8 dereferenceable(16) %1, ptr noundef nonnull %4, i64 noundef 8)
  %6 = load i64, ptr %4, align 8, !tbaa !37
  call void @_ZNSt6vectorIN2cv6Point_IfEESaIS2_EE6resizeEm(ptr noundef nonnull align 8 dereferenceable(24) %2, i64 noundef %6)
  %7 = load ptr, ptr %2, align 8, !tbaa !30
  %8 = getelementptr inbounds nuw i8, ptr %2, i64 8
  %9 = load ptr, ptr %8, align 8, !tbaa !28
  %10 = ptrtoint ptr %9 to i64
  %11 = ptrtoint ptr %7 to i64
  %12 = sub i64 %10, %11
  %13 = call noundef nonnull align 8 dereferenceable(16) ptr @_ZNSi4readEPcl(ptr noundef nonnull align 8 dereferenceable(16) %1, ptr noundef nonnull %7, i64 noundef %12)
  call void @llvm.lifetime.end.p0(i64 8, ptr nonnull %4) #24
  ret void
}